target datalayout = "e-m:e-p270:32:32-p271:32:32-p272:64:64-i64:64-i128:128-f80:128-n8:16:32:64-S128"
target triple = "x86_64-pc-linux-gnu"

%"class.icu_77::Normalizer" = type <{ %"class.icu_77::UObject", ptr, ptr, i32, i32, ptr, i32, i32, %"class.icu_77::UnicodeString", i32, [4 x i8] }>
%"class.icu_77::UObject" = type { ptr }
%"class.icu_77::UnicodeString" = type { %"class.icu_77::Replaceable", %"union.icu_77::UnicodeString::StackBufferOrFields" }
%"class.icu_77::Replaceable" = type { %"class.icu_77::UObject" }
%"union.icu_77::UnicodeString::StackBufferOrFields" = type { %struct.anon.0, [32 x i8] }
%struct.anon.0 = type { i16, i32, i32, ptr }
%"class.icu_77::FilteredNormalizer2" = type { %"class.icu_77::Normalizer2", ptr, ptr }
%"class.icu_77::Normalizer2" = type { %"class.icu_77::UObject" }

@_ZTVN6icu_777UObjectE = available_externally unnamed_addr constant { [5 x ptr] } { [5 x ptr] [ptr null, ptr @_ZTIN6icu_777UObjectE, ptr @_ZN6icu_777UObjectD1Ev, ptr @_ZN6icu_777UObjectD0Ev, ptr @_ZNK6icu_777UObject17getDynamicClassIDEv] }, align 8

; Function Attrs: inlinehint mustprogress nounwind uwtable
define linkonce_odr void @_ZN6icu_777UObjectC2Ev(ptr noundef nonnull align 8 dereferenceable(8) %0) unnamed_addr #3 comdat align 2 {
  %2 = alloca ptr, align 8
  store ptr %0, ptr %2, align 8, !tbaa !30
  %3 = load ptr, ptr %2, align 8
  store ptr getelementptr inbounds inrange(-16, 24) ({ [5 x ptr] }, ptr @_ZTVN6icu_777UObjectE, i32 0, i32 0, i32 2), ptr %3, align 8, !tbaa !12
  ret void
}

; Function Attrs: inlinehint mustprogress nounwind uwtable
define linkonce_odr void @_ZN6icu_7711Normalizer2C2Ev(ptr noundef nonnull align 8 dereferenceable(8) %0) unnamed_addr #3 comdat align 2 {
  %2 = alloca ptr, align 8
  store ptr %0, ptr %2, align 8, !tbaa !46
  %3 = load ptr, ptr %2, align 8
  call void @_ZN6icu_777UObjectC2Ev(ptr noundef nonnull align 8 dereferenceable(8) %3) #9
  store ptr getelementptr inbounds inrange(-16, 144) ({ [20 x ptr] }, ptr @_ZTVN6icu_7711Normalizer2E, i32 0, i32 0, i32 2), ptr %3, align 8, !tbaa !12
  ret void
}

; Function Attrs: inlinehint mustprogress nounwind uwtable
define internal noundef signext i8 @_ZL9U_FAILURE10UErrorCode(i32 noundef %0) #3 {
  %2 = alloca i32, align 4
  store i32 %0, ptr %2, align 4, !tbaa !33
  %3 = load i32, ptr %2, align 4, !tbaa !33
  %4 = icmp sgt i32 %3, 0
  %5 = zext i1 %4 to i8
  ret i8 %5
}

; Function Attrs: mustprogress nounwind uwtable
define linkonce_odr void @_ZN6icu_7719FilteredNormalizer2C2ERKNS_11Normalizer2ERKNS_10UnicodeSetE(ptr noundef nonnull align 8 dereferenceable(24) %0, ptr noundef nonnull align 8 dereferenceable(8) %1, ptr noundef nonnull align 8 dereferenceable(200) %2) unnamed_addr #0 comdat align 2 {
  %4 = alloca ptr, align 8
  %5 = alloca ptr, align 8
  %6 = alloca ptr, align 8
  store ptr %0, ptr %4, align 8, !tbaa !45
  store ptr %1, ptr %5, align 8, !tbaa !46
  store ptr %2, ptr %6, align 8, !tbaa !47
  %7 = load ptr, ptr %4, align 8
  call void @_ZN6icu_7711Normalizer2C2Ev(ptr noundef nonnull align 8 dereferenceable(8) %7) #9
  store ptr getelementptr inbounds inrange(-16, 144) ({ [20 x ptr] }, ptr @_ZTVN6icu_7719FilteredNormalizer2E, i32 0, i32 0, i32 2), ptr %7, align 8, !tbaa !12
  %8 = getelementptr inbounds nuw %"class.icu_77::FilteredNormalizer2", ptr %7, i32 0, i32 1
  %9 = load ptr, ptr %5, align 8, !tbaa !46
  store ptr %9, ptr %8, align 8, !tbaa !46
  %10 = getelementptr inbounds nuw %"class.icu_77::FilteredNormalizer2", ptr %7, i32 0, i32 2
  %11 = load ptr, ptr %6, align 8, !tbaa !47
  store ptr %11, ptr %10, align 8, !tbaa !47
  ret void
}

; Function Attrs: mustprogress uwtable
define void @_ZN6icu_7710Normalizer4initEv(ptr noundef nonnull align 8 dereferenceable(116) %0) #1 align 2 personality ptr @__gxx_personality_v0 {
  %2 = alloca ptr, align 8
  %3 = alloca i32, align 4
  %4 = alloca ptr, align 8
  %5 = alloca i1, align 1
  %6 = alloca ptr, align 8
  %7 = alloca i32, align 4
  store ptr %0, ptr %2, align 8, !tbaa !3
  %8 = load ptr, ptr %2, align 8
  call void @llvm.lifetime.start.p0(i64 4, ptr %3) #9
  store i32 0, ptr %3, align 4, !tbaa !33
  %9 = getelementptr inbounds nuw %"class.icu_77::Normalizer", ptr %8, i32 0, i32 3
  %10 = load i32, ptr %9, align 8, !tbaa !24
  %11 = call noundef ptr @_ZN6icu_7718Normalizer2Factory11getInstanceE18UNormalizationModeR10UErrorCode(i32 noundef %10, ptr noundef nonnull align 4 dereferenceable(4) %3)
  %12 = getelementptr inbounds nuw %"class.icu_77::Normalizer", ptr %8, i32 0, i32 2
  store ptr %11, ptr %12, align 8, !tbaa !23
  %13 = getelementptr inbounds nuw %"class.icu_77::Normalizer", ptr %8, i32 0, i32 4
  %14 = load i32, ptr %13, align 4, !tbaa !25
  %15 = and i32 %14, 32
  %16 = icmp ne i32 %15, 0
  br i1 %16, label %17, label %46

17:                                               ; preds = %1
  %18 = getelementptr inbounds nuw %"class.icu_77::Normalizer", ptr %8, i32 0, i32 1
  %19 = load ptr, ptr %18, align 8, !tbaa !14
  %20 = icmp eq ptr %19, null
  br i1 %20, label %25, label %21

21:                                               ; preds = %17
  %22 = load ptr, ptr %19, align 8, !tbaa !12
  %23 = getelementptr inbounds ptr, ptr %22, i64 1
  %24 = load ptr, ptr %23, align 8
  call void %24(ptr noundef nonnull align 8 dereferenceable(24) %19) #9
  br label %25

25:                                               ; preds = %21, %17
  %26 = call noundef ptr @_ZN6icu_777UMemorynwEm(i64 noundef 24) #9
  %27 = icmp eq ptr %26, null
  store i1 false, ptr %5, align 1
  br i1 %27, label %34, label %28

28:                                               ; preds = %25
  store ptr %26, ptr %4, align 8
  store i1 true, ptr %5, align 1
  %29 = getelementptr inbounds nuw %"class.icu_77::Normalizer", ptr %8, i32 0, i32 2
  %30 = load ptr, ptr %29, align 8, !tbaa !23
  %31 = invoke ptr @uniset_getUnicode32Instance_77(ptr noundef nonnull align 4 dereferenceable(4) %3)
          to label %32 unwind label %38

32:                                               ; preds = %28
  invoke void @_ZN6icu_7719FilteredNormalizer2C2ERKNS_11Normalizer2ERKNS_10UnicodeSetE(ptr noundef nonnull align 8 dereferenceable(24) %26, ptr noundef nonnull align 8 dereferenceable(8) %30, ptr noundef nonnull align 8 dereferenceable(200) %31)
          to label %33 unwind label %38

33:                                               ; preds = %32
  br label %34

34:                                               ; preds = %33, %25
  %35 = phi ptr [ %26, %33 ], [ null, %25 ]
  %36 = getelementptr inbounds nuw %"class.icu_77::Normalizer", ptr %8, i32 0, i32 1
  store ptr %35, ptr %36, align 8, !tbaa !14
  %37 = getelementptr inbounds nuw %"class.icu_77::Normalizer", ptr %8, i32 0, i32 2
  store ptr %35, ptr %37, align 8, !tbaa !23
  br label %46

38:                                               ; preds = %32, %28
  %39 = landingpad { ptr, i32 }
          cleanup
  %40 = extractvalue { ptr, i32 } %39, 0
  store ptr %40, ptr %6, align 8
  %41 = extractvalue { ptr, i32 } %39, 1
  store i32 %41, ptr %7, align 4
  %42 = load i1, ptr %5, align 1
  br i1 %42, label %43, label %45

43:                                               ; preds = %38
  %44 = load ptr, ptr %4, align 8
  call void @_ZN6icu_777UMemorydlEPv(ptr noundef %44) #9
  br label %45

45:                                               ; preds = %43, %38
  call void @llvm.lifetime.end.p0(i64 4, ptr %3) #9
  br label %54

46:                                               ; preds = %34, %1
  %47 = load i32, ptr %3, align 4, !tbaa !33
  %48 = call noundef signext i8 @_ZL9U_FAILURE10UErrorCode(i32 noundef %47)
  %49 = icmp ne i8 %48, 0
  br i1 %49, label %50, label %53

50:                                               ; preds = %46
  store i32 0, ptr %3, align 4, !tbaa !33
  %51 = call noundef ptr @_ZN6icu_7718Normalizer2Factory15getNoopInstanceER10UErrorCode(ptr noundef nonnull align 4 dereferenceable(4) %3)
  %52 = getelementptr inbounds nuw %"class.icu_77::Normalizer", ptr %8, i32 0, i32 2
  store ptr %51, ptr %52, align 8, !tbaa !23
  br label %53

53:                                               ; preds = %50, %46
  call void @llvm.lifetime.end.p0(i64 4, ptr %3) #9
  ret void

54:                                               ; preds = %45
  %55 = load ptr, ptr %6, align 8
  %56 = load i32, ptr %7, align 4
  %57 = insertvalue { ptr, i32 } poison, ptr %55, 0
  %58 = insertvalue { ptr, i32 } %57, i32 %56, 1
  resume { ptr, i32 } %58
}