; Function Attrs: mustprogress uwtable
define void @_ZN6icu_7710Normalizer4initEv(ptr noundef nonnull align 8 captures(none) dereferenceable(116) initializes((16, 24)) %0) local_unnamed_addr #1 align 2 personality ptr @__gxx_personality_v0 {
  %2 = alloca i32, align 4
  call void @llvm.lifetime.start.p0(i64 4, ptr nonnull %2) #10
  store i32 0, ptr %2, align 4, !tbaa !24
  %3 = getelementptr inbounds nuw i8, ptr %0, i64 24
  %4 = load i32, ptr %3, align 8, !tbaa !6
  %5 = call noundef ptr @_ZN6icu_7718Normalizer2Factory11getInstanceE18UNormalizationModeR10UErrorCode(i32 noundef %4, ptr noundef nonnull align 4 dereferenceable(4) %2)
  %6 = getelementptr inbounds nuw i8, ptr %0, i64 16
  store ptr %5, ptr %6, align 8, !tbaa !26
  %7 = getelementptr inbounds nuw i8, ptr %0, i64 28
  %8 = load i32, ptr %7, align 4, !tbaa !18
  %9 = and i32 %8, 32
  %.not = icmp eq i32 %9, 0
  br i1 %.not, label %30, label %10

10:                                               ; preds = %1
  %11 = getelementptr inbounds nuw i8, ptr %0, i64 8
  %12 = load ptr, ptr %11, align 8, !tbaa !27
  %13 = icmp eq ptr %12, null
  br i1 %13, label %18, label %14

14:                                               ; preds = %10
  %15 = load ptr, ptr %12, align 8, !tbaa !3
  %16 = getelementptr inbounds nuw i8, ptr %15, i64 8
  %17 = load ptr, ptr %16, align 8
  call void %17(ptr noundef nonnull align 8 dereferenceable(24) %12) #10
  br label %18

18:                                               ; preds = %14, %10
  %19 = call noundef ptr @_ZN6icu_777UMemorynwEm(i64 noundef 24) #10
  %20 = icmp eq ptr %19, null
  br i1 %20, label %27, label %21

21:                                               ; preds = %18
  %22 = load ptr, ptr %6, align 8, !tbaa !26
  %23 = invoke ptr @uniset_getUnicode32Instance_77(ptr noundef nonnull align 4 dereferenceable(4) %2)
          to label %24 unwind label %28

24:                                               ; preds = %21
  store ptr getelementptr inbounds nuw inrange(-16, 144) (i8, ptr @_ZTVN6icu_7719FilteredNormalizer2E, i64 16), ptr %19, align 8, !tbaa !3
  %25 = getelementptr inbounds nuw i8, ptr %19, i64 8
  store ptr %22, ptr %25, align 8, !tbaa !28
  %26 = getelementptr inbounds nuw i8, ptr %19, i64 16
  store ptr %23, ptr %26, align 8, !tbaa !29
  br label %27

27:                                               ; preds = %24, %18
  store ptr %19, ptr %11, align 8, !tbaa !27
  store ptr %19, ptr %6, align 8, !tbaa !26
  br label %30

28:                                               ; preds = %21
  %29 = landingpad { ptr, i32 }
          cleanup
  call void @_ZN6icu_777UMemorydlEPv(ptr noundef nonnull %19) #10
  call void @llvm.lifetime.end.p0(i64 4, ptr nonnull %2) #10
  resume { ptr, i32 } %29

30:                                               ; preds = %27, %1
  %31 = load i32, ptr %2, align 4, !tbaa !24
  %32 = icmp slt i32 %31, 1
  br i1 %32, label %35, label %33

33:                                               ; preds = %30
  store i32 0, ptr %2, align 4, !tbaa !24
  %34 = call noundef ptr @_ZN6icu_7718Normalizer2Factory15getNoopInstanceER10UErrorCode(ptr noundef nonnull align 4 dereferenceable(4) %2)
  store ptr %34, ptr %6, align 8, !tbaa !26
  br label %35

35:                                               ; preds = %33, %30
  call void @llvm.lifetime.end.p0(i64 4, ptr nonnull %2) #10
  ret void
}